; Function Attrs: null_pointer_is_valid sspstrong uwtable
define internal void @netmonrec_comment_destroy(ptr noundef %0) #0 {
  %2 = getelementptr inbounds nuw i8, ptr %0, i64 8
  %3 = load ptr, ptr %2, align 8
  tail call void @g_free(ptr noundef %3)
  %4 = getelementptr inbounds nuw i8, ptr %0, i64 24
  %5 = load ptr, ptr %4, align 8
  tail call void @g_free(ptr noundef %5)
  tail call void @g_free(ptr noundef %0)
  ret void
}